target datalayout = "e-m:e-p270:32:32-p271:32:32-p272:64:64-i64:64-i128:128-f80:128-n8:16:32:64-S128"
target triple = "x86_64-pc-linux-gnu"

%struct.AVChannelLayout = type { i32, i32, %union.anon, ptr }
%union.anon = type { i64 }
%struct.AVChannelCustom = type { i32, [16 x i8], ptr }

@.str.141 = private unnamed_addr constant [13 x i8] c"ambisonic %d\00", align 1

; Function Attrs: alwaysinline nounwind willreturn memory(none) uwtable
define internal i32 @av_popcount_c(i32 noundef %0) #5 {
  %2 = alloca i32, align 4
  store i32 %0, ptr %2, align 4, !tbaa !9
  %3 = load i32, ptr %2, align 4, !tbaa !9
  %4 = lshr i32 %3, 1
  %5 = and i32 %4, 1431655765
  %6 = load i32, ptr %2, align 4, !tbaa !9
  %7 = sub i32 %6, %5
  store i32 %7, ptr %2, align 4, !tbaa !9
  %8 = load i32, ptr %2, align 4, !tbaa !9
  %9 = and i32 %8, 858993459
  %10 = load i32, ptr %2, align 4, !tbaa !9
  %11 = lshr i32 %10, 2
  %12 = and i32 %11, 858993459
  %13 = add i32 %9, %12
  store i32 %13, ptr %2, align 4, !tbaa !9
  %14 = load i32, ptr %2, align 4, !tbaa !9
  %15 = load i32, ptr %2, align 4, !tbaa !9
  %16 = lshr i32 %15, 4
  %17 = add i32 %14, %16
  %18 = and i32 %17, 252645135
  store i32 %18, ptr %2, align 4, !tbaa !9
  %19 = load i32, ptr %2, align 4, !tbaa !9
  %20 = lshr i32 %19, 8
  %21 = load i32, ptr %2, align 4, !tbaa !9
  %22 = add i32 %21, %20
  store i32 %22, ptr %2, align 4, !tbaa !9
  %23 = load i32, ptr %2, align 4, !tbaa !9
  %24 = load i32, ptr %2, align 4, !tbaa !9
  %25 = lshr i32 %24, 16
  %26 = add i32 %23, %25
  %27 = and i32 %26, 63
  ret i32 %27
}

; Function Attrs: nounwind uwtable
define internal i64 @masked_description(ptr noundef %0, i32 noundef %1) #0 {
  %3 = alloca i64, align 8
  %4 = alloca ptr, align 8
  %5 = alloca i32, align 4
  %6 = alloca i64, align 8
  %7 = alloca i32, align 4
  %8 = alloca i32, align 4
  %9 = alloca i32, align 4
  store ptr %0, ptr %4, align 8, !tbaa !23
  store i32 %1, ptr %5, align 4, !tbaa !9
  call void @llvm.lifetime.start.p0(i64 8, ptr %6) #11
  store i64 0, ptr %6, align 8, !tbaa !15
  call void @llvm.lifetime.start.p0(i64 4, ptr %7) #11
  %10 = load i32, ptr %5, align 4, !tbaa !9
  store i32 %10, ptr %7, align 4, !tbaa !9
  br label %11

11:                                               ; preds = %49, %2
  %12 = load i32, ptr %7, align 4, !tbaa !9
  %13 = load ptr, ptr %4, align 8, !tbaa !23
  %14 = getelementptr inbounds nuw %struct.AVChannelLayout, ptr %13, i32 0, i32 1
  %15 = load i32, ptr %14, align 4, !tbaa !32
  %16 = icmp slt i32 %12, %15
  br i1 %16, label %18, label %17

17:                                               ; preds = %11
  store i32 2, ptr %8, align 4
  br label %52

18:                                               ; preds = %11
  call void @llvm.lifetime.start.p0(i64 4, ptr %9) #11
  %19 = load ptr, ptr %4, align 8, !tbaa !23
  %20 = getelementptr inbounds nuw %struct.AVChannelLayout, ptr %19, i32 0, i32 2
  %21 = load ptr, ptr %20, align 8, !tbaa !22
  %22 = load i32, ptr %7, align 4, !tbaa !9
  %23 = sext i32 %22 to i64
  %24 = getelementptr inbounds %struct.AVChannelCustom, ptr %21, i64 %23
  %25 = getelementptr inbounds nuw %struct.AVChannelCustom, ptr %24, i32 0, i32 0
  %26 = load i32, ptr %25, align 8, !tbaa !27
  store i32 %26, ptr %9, align 4, !tbaa !9
  %27 = load i32, ptr %9, align 4, !tbaa !9
  %28 = icmp sge i32 %27, 0
  br i1 %28, label %29, label %44

29:                                               ; preds = %18
  %30 = load i32, ptr %9, align 4, !tbaa !9
  %31 = icmp slt i32 %30, 63
  br i1 %31, label %32, label %44

32:                                               ; preds = %29
  %33 = load i64, ptr %6, align 8, !tbaa !15
  %34 = load i32, ptr %9, align 4, !tbaa !9
  %35 = zext i32 %34 to i64
  %36 = shl i64 1, %35
  %37 = icmp ult i64 %33, %36
  br i1 %37, label %38, label %44

38:                                               ; preds = %32
  %39 = load i32, ptr %9, align 4, !tbaa !9
  %40 = zext i32 %39 to i64
  %41 = shl i64 1, %40
  %42 = load i64, ptr %6, align 8, !tbaa !15
  %43 = or i64 %42, %41
  store i64 %43, ptr %6, align 8, !tbaa !15
  br label %45

44:                                               ; preds = %32, %29, %18
  store i64 -22, ptr %3, align 8
  store i32 1, ptr %8, align 4
  br label %46

45:                                               ; preds = %38
  store i32 0, ptr %8, align 4
  br label %46

46:                                               ; preds = %45, %44
  call void @llvm.lifetime.end.p0(i64 4, ptr %9) #11
  %47 = load i32, ptr %8, align 4
  switch i32 %47, label %52 [
    i32 0, label %48
  ]

48:                                               ; preds = %46
  br label %49

49:                                               ; preds = %48
  %50 = load i32, ptr %7, align 4, !tbaa !9
  %51 = add nsw i32 %50, 1
  store i32 %51, ptr %7, align 4, !tbaa !9
  br label %11, !llvm.loop !49

52:                                               ; preds = %46, %17
  call void @llvm.lifetime.end.p0(i64 4, ptr %7) #11
  %53 = load i32, ptr %8, align 4
  switch i32 %53, label %56 [
    i32 2, label %54
  ]

54:                                               ; preds = %52
  %55 = load i64, ptr %6, align 8, !tbaa !15
  store i64 %55, ptr %3, align 8
  store i32 1, ptr %8, align 4
  br label %56

56:                                               ; preds = %54, %52
  call void @llvm.lifetime.end.p0(i64 8, ptr %6) #11
  %57 = load i64, ptr %3, align 8
  ret i64 %57
}

; Function Attrs: nounwind uwtable
define internal i32 @has_channel_names(ptr noundef %0) #0 {
  %2 = alloca i32, align 4
  %3 = alloca ptr, align 8
  %4 = alloca i32, align 4
  %5 = alloca i32, align 4
  store ptr %0, ptr %3, align 8, !tbaa !23
  %6 = load ptr, ptr %3, align 8, !tbaa !23
  %7 = getelementptr inbounds nuw %struct.AVChannelLayout, ptr %6, i32 0, i32 0
  %8 = load i32, ptr %7, align 8, !tbaa !30
  %9 = icmp ne i32 %8, 2
  br i1 %9, label %10, label %11

10:                                               ; preds = %1
  store i32 0, ptr %2, align 4
  br label %38

11:                                               ; preds = %1
  call void @llvm.lifetime.start.p0(i64 4, ptr %4) #11
  store i32 0, ptr %4, align 4, !tbaa !9
  br label %12

12:                                               ; preds = %32, %11
  %13 = load i32, ptr %4, align 4, !tbaa !9
  %14 = load ptr, ptr %3, align 8, !tbaa !23
  %15 = getelementptr inbounds nuw %struct.AVChannelLayout, ptr %14, i32 0, i32 1
  %16 = load i32, ptr %15, align 4, !tbaa !32
  %17 = icmp slt i32 %13, %16
  br i1 %17, label %19, label %18

18:                                               ; preds = %12
  store i32 2, ptr %5, align 4
  br label %35

19:                                               ; preds = %12
  %20 = load ptr, ptr %3, align 8, !tbaa !23
  %21 = getelementptr inbounds nuw %struct.AVChannelLayout, ptr %20, i32 0, i32 2
  %22 = load ptr, ptr %21, align 8, !tbaa !22
  %23 = load i32, ptr %4, align 4, !tbaa !9
  %24 = sext i32 %23 to i64
  %25 = getelementptr inbounds %struct.AVChannelCustom, ptr %22, i64 %24
  %26 = getelementptr inbounds nuw %struct.AVChannelCustom, ptr %25, i32 0, i32 1
  %27 = getelementptr inbounds [16 x i8], ptr %26, i64 0, i64 0
  %28 = load i8, ptr %27, align 4, !tbaa !22
  %29 = icmp ne i8 %28, 0
  br i1 %29, label %30, label %31

30:                                               ; preds = %19
  store i32 1, ptr %2, align 4
  store i32 1, ptr %5, align 4
  br label %35

31:                                               ; preds = %19
  br label %32

32:                                               ; preds = %31
  %33 = load i32, ptr %4, align 4, !tbaa !9
  %34 = add nsw i32 %33, 1
  store i32 %34, ptr %4, align 4, !tbaa !9
  br label %12, !llvm.loop !48

35:                                               ; preds = %30, %18
  call void @llvm.lifetime.end.p0(i64 4, ptr %4) #11
  %36 = load i32, ptr %5, align 4
  switch i32 %36, label %40 [
    i32 2, label %37
    i32 1, label %38
  ]

37:                                               ; preds = %35
  store i32 0, ptr %2, align 4
  br label %38

38:                                               ; preds = %37, %35, %10
  %39 = load i32, ptr %2, align 4
  ret i32 %39

40:                                               ; preds = %35
  unreachable
}

; Function Attrs: alwaysinline nounwind willreturn memory(none) uwtable
define internal i32 @av_popcount64_c(i64 noundef %0) #5 {
  %2 = alloca i64, align 8
  store i64 %0, ptr %2, align 8, !tbaa !15
  %3 = load i64, ptr %2, align 8, !tbaa !15
  %4 = trunc i64 %3 to i32
  %5 = call i32 @av_popcount_c(i32 noundef %4) #13
  %6 = load i64, ptr %2, align 8, !tbaa !15
  %7 = lshr i64 %6, 32
  %8 = trunc i64 %7 to i32
  %9 = call i32 @av_popcount_c(i32 noundef %8) #13
  %10 = add nsw i32 %5, %9
  ret i32 %10
}

; Function Attrs: nounwind uwtable
define internal i32 @try_describe_ambisonic(ptr noundef %0, ptr noundef %1) #0 {
  %3 = alloca i32, align 4
  %4 = alloca ptr, align 8
  %5 = alloca ptr, align 8
  %6 = alloca i32, align 4
  %7 = alloca i32, align 4
  %8 = alloca i32, align 4
  %9 = alloca %struct.AVChannelLayout, align 8
  %10 = alloca i64, align 8
  store ptr %0, ptr %4, align 8, !tbaa !4
  store ptr %1, ptr %5, align 8, !tbaa !23
  call void @llvm.lifetime.start.p0(i64 4, ptr %6) #11
  call void @llvm.lifetime.start.p0(i64 4, ptr %7) #11
  %11 = load ptr, ptr %5, align 8, !tbaa !23
  %12 = call i32 @av_channel_layout_ambisonic_order(ptr noundef %11)
  store i32 %12, ptr %7, align 4, !tbaa !9
  %13 = load i32, ptr %7, align 4, !tbaa !9
  %14 = icmp slt i32 %13, 0
  br i1 %14, label %15, label %17

15:                                               ; preds = %2
  %16 = load i32, ptr %7, align 4, !tbaa !9
  store i32 %16, ptr %3, align 4
  store i32 1, ptr %8, align 4
  br label %83

17:                                               ; preds = %2
  %18 = load ptr, ptr %4, align 8, !tbaa !4
  %19 = load i32, ptr %7, align 4, !tbaa !9
  call void (ptr, ptr, ...) @av_bprintf(ptr noundef %18, ptr noundef @.str.141, i32 noundef %19)
  %20 = load i32, ptr %7, align 4, !tbaa !9
  %21 = add nsw i32 %20, 1
  %22 = load i32, ptr %7, align 4, !tbaa !9
  %23 = add nsw i32 %22, 1
  %24 = mul nsw i32 %21, %23
  store i32 %24, ptr %6, align 4, !tbaa !9
  %25 = load i32, ptr %6, align 4, !tbaa !9
  %26 = load ptr, ptr %5, align 8, !tbaa !23
  %27 = getelementptr inbounds nuw %struct.AVChannelLayout, ptr %26, i32 0, i32 1
  %28 = load i32, ptr %27, align 4, !tbaa !32
  %29 = icmp slt i32 %25, %28
  br i1 %29, label %30, label %82

30:                                               ; preds = %17
  call void @llvm.lifetime.start.p0(i64 24, ptr %9) #11
  call void @llvm.memset.p0.i64(ptr align 8 %9, i8 0, i64 24, i1 false)
  %31 = load ptr, ptr %5, align 8, !tbaa !23
  %32 = getelementptr inbounds nuw %struct.AVChannelLayout, ptr %31, i32 0, i32 0
  %33 = load i32, ptr %32, align 8, !tbaa !30
  %34 = icmp eq i32 %33, 3
  br i1 %34, label %35, label %46

35:                                               ; preds = %30
  %36 = getelementptr inbounds nuw %struct.AVChannelLayout, ptr %9, i32 0, i32 0
  store i32 1, ptr %36, align 8, !tbaa !30
  %37 = load ptr, ptr %5, align 8, !tbaa !23
  %38 = getelementptr inbounds nuw %struct.AVChannelLayout, ptr %37, i32 0, i32 2
  %39 = load i64, ptr %38, align 8, !tbaa !22
  %40 = call i32 @av_popcount64_c(i64 noundef %39) #13
  %41 = getelementptr inbounds nuw %struct.AVChannelLayout, ptr %9, i32 0, i32 1
  store i32 %40, ptr %41, align 4, !tbaa !32
  %42 = load ptr, ptr %5, align 8, !tbaa !23
  %43 = getelementptr inbounds nuw %struct.AVChannelLayout, ptr %42, i32 0, i32 2
  %44 = load i64, ptr %43, align 8, !tbaa !22
  %45 = getelementptr inbounds nuw %struct.AVChannelLayout, ptr %9, i32 0, i32 2
  store i64 %44, ptr %45, align 8, !tbaa !22
  br label %78

46:                                               ; preds = %30
  call void @llvm.lifetime.start.p0(i64 8, ptr %10) #11
  %47 = load ptr, ptr %5, align 8, !tbaa !23
  %48 = call i32 @has_channel_names(ptr noundef %47)
  %49 = icmp ne i32 %48, 0
  br i1 %49, label %62, label %50

50:                                               ; preds = %46
  %51 = load ptr, ptr %5, align 8, !tbaa !23
  %52 = load i32, ptr %6, align 4, !tbaa !9
  %53 = call i64 @masked_description(ptr noundef %51, i32 noundef %52)
  store i64 %53, ptr %10, align 8, !tbaa !15
  %54 = icmp sgt i64 %53, 0
  br i1 %54, label %55, label %62

55:                                               ; preds = %50
  %56 = getelementptr inbounds nuw %struct.AVChannelLayout, ptr %9, i32 0, i32 0
  store i32 1, ptr %56, align 8, !tbaa !30
  %57 = load i64, ptr %10, align 8, !tbaa !15
  %58 = call i32 @av_popcount64_c(i64 noundef %57) #13
  %59 = getelementptr inbounds nuw %struct.AVChannelLayout, ptr %9, i32 0, i32 1
  store i32 %58, ptr %59, align 4, !tbaa !32
  %60 = load i64, ptr %10, align 8, !tbaa !15
  %61 = getelementptr inbounds nuw %struct.AVChannelLayout, ptr %9, i32 0, i32 2
  store i64 %60, ptr %61, align 8, !tbaa !22
  br label %77

62:                                               ; preds = %50, %46
  %63 = getelementptr inbounds nuw %struct.AVChannelLayout, ptr %9, i32 0, i32 0
  store i32 2, ptr %63, align 8, !tbaa !30
  %64 = load ptr, ptr %5, align 8, !tbaa !23
  %65 = getelementptr inbounds nuw %struct.AVChannelLayout, ptr %64, i32 0, i32 1
  %66 = load i32, ptr %65, align 4, !tbaa !32
  %67 = load i32, ptr %6, align 4, !tbaa !9
  %68 = sub nsw i32 %66, %67
  %69 = getelementptr inbounds nuw %struct.AVChannelLayout, ptr %9, i32 0, i32 1
  store i32 %68, ptr %69, align 4, !tbaa !32
  %70 = load ptr, ptr %5, align 8, !tbaa !23
  %71 = getelementptr inbounds nuw %struct.AVChannelLayout, ptr %70, i32 0, i32 2
  %72 = load ptr, ptr %71, align 8, !tbaa !22
  %73 = load i32, ptr %6, align 4, !tbaa !9
  %74 = sext i32 %73 to i64
  %75 = getelementptr inbounds %struct.AVChannelCustom, ptr %72, i64 %74
  %76 = getelementptr inbounds nuw %struct.AVChannelLayout, ptr %9, i32 0, i32 2
  store ptr %75, ptr %76, align 8, !tbaa !22
  br label %77

77:                                               ; preds = %62, %55
  call void @llvm.lifetime.end.p0(i64 8, ptr %10) #11
  br label %78

78:                                               ; preds = %77, %35
  %79 = load ptr, ptr %4, align 8, !tbaa !4
  call void @av_bprint_chars(ptr noundef %79, i8 noundef signext 43, i32 noundef 1)
  %80 = load ptr, ptr %4, align 8, !tbaa !4
  %81 = call i32 @av_channel_layout_describe_bprint(ptr noundef %9, ptr noundef %80)
  call void @llvm.lifetime.end.p0(i64 24, ptr %9) #11
  br label %82

82:                                               ; preds = %78, %17
  store i32 0, ptr %3, align 4
  store i32 1, ptr %8, align 4
  br label %83

83:                                               ; preds = %82, %15
  call void @llvm.lifetime.end.p0(i64 4, ptr %7) #11
  call void @llvm.lifetime.end.p0(i64 4, ptr %6) #11
  %84 = load i32, ptr %3, align 4
  ret i32 %84
}