; Function Attrs: nounwind uwtable
define internal fastcc range(i32 -2147483648, 1) i32 @try_describe_ambisonic(ptr noundef %0, ptr noundef readonly captures(none) %1) unnamed_addr #0 {
  %3 = alloca %struct.AVChannelLayout, align 8
  %4 = tail call i32 @av_channel_layout_ambisonic_order(ptr noundef %1)
  %5 = icmp slt i32 %4, 0
  br i1 %5, label %113, label %6

6:                                                ; preds = %2
  tail call void (ptr, ptr, ...) @av_bprintf(ptr noundef %0, ptr noundef nonnull @.str.141, i32 noundef %4) #16
  %7 = add nuw nsw i32 %4, 1
  %8 = mul nuw nsw i32 %7, %7
  %9 = getelementptr inbounds nuw i8, ptr %1, i64 4
  %10 = load i32, ptr %9, align 4, !tbaa !20
  %11 = icmp slt i32 %8, %10
  br i1 %11, label %12, label %113

12:                                               ; preds = %6
  call void @llvm.lifetime.start.p0(i64 24, ptr nonnull %3) #16
  call void @llvm.memset.p0.i64(ptr noundef nonnull align 8 dereferenceable(24) %3, i8 0, i64 24, i1 false)
  %13 = load i32, ptr %1, align 8, !tbaa !18
  switch i32 %13, label %..lr.ph.i26_crit_edge [
    i32 3, label %14
    i32 2, label %.lr.ph.i
  ]

..lr.ph.i26_crit_edge:                            ; preds = %12
  %.phi.trans.insert = getelementptr inbounds nuw i8, ptr %1, i64 8
  %.pre = load ptr, ptr %.phi.trans.insert, align 8, !tbaa !17
  %.pre36 = zext nneg i32 %10 to i64
  br label %.lr.ph.i26

14:                                               ; preds = %12
  store i32 1, ptr %3, align 8, !tbaa !18
  %15 = getelementptr inbounds nuw i8, ptr %1, i64 8
  %16 = load i64, ptr %15, align 8, !tbaa !17
  %17 = trunc i64 %16 to i32
  %18 = lshr i32 %17, 1
  %19 = and i32 %18, 1431655765
  %20 = sub i32 %17, %19
  %21 = and i32 %20, 858993459
  %22 = lshr i32 %20, 2
  %23 = and i32 %22, 858993459
  %24 = add nuw nsw i32 %23, %21
  %25 = lshr i32 %24, 4
  %26 = add nuw nsw i32 %25, %24
  %27 = and i32 %26, 252645135
  %28 = lshr i32 %27, 8
  %29 = add nuw nsw i32 %28, %27
  %30 = lshr i32 %29, 16
  %31 = add nuw nsw i32 %30, %29
  %32 = and i32 %31, 63
  %33 = lshr i64 %16, 32
  %34 = trunc nuw i64 %33 to i32
  %35 = lshr i32 %34, 1
  %36 = and i32 %35, 1431655765
  %37 = sub i32 %34, %36
  %38 = and i32 %37, 858993459
  %39 = lshr i32 %37, 2
  %40 = and i32 %39, 858993459
  %41 = add nuw nsw i32 %40, %38
  %42 = lshr i32 %41, 4
  %43 = add nuw nsw i32 %42, %41
  %44 = and i32 %43, 252645135
  %45 = lshr i32 %44, 8
  %46 = add nuw nsw i32 %45, %44
  %47 = lshr i32 %46, 16
  %48 = add nuw nsw i32 %47, %46
  %49 = and i32 %48, 63
  %50 = add nuw nsw i32 %49, %32
  %51 = getelementptr inbounds nuw i8, ptr %3, i64 4
  store i32 %50, ptr %51, align 4, !tbaa !20
  %52 = getelementptr inbounds nuw i8, ptr %3, i64 8
  store i64 %16, ptr %52, align 8, !tbaa !17
  br label %111

.lr.ph.i:                                         ; preds = %12
  %53 = getelementptr inbounds nuw i8, ptr %1, i64 8
  %54 = load ptr, ptr %53, align 8, !tbaa !17
  %wide.trip.count.i = zext nneg i32 %10 to i64
  br label %56

55:                                               ; preds = %56
  %indvars.iv.next.i = add nuw nsw i64 %indvars.iv.i, 1
  %exitcond.not.i = icmp eq i64 %indvars.iv.next.i, %wide.trip.count.i
  br i1 %exitcond.not.i, label %.lr.ph.i26, label %56, !llvm.loop !40

56:                                               ; preds = %55, %.lr.ph.i
  %indvars.iv.i = phi i64 [ 0, %.lr.ph.i ], [ %indvars.iv.next.i, %55 ]
  %57 = getelementptr inbounds nuw %struct.AVChannelCustom, ptr %54, i64 %indvars.iv.i, i32 1
  %58 = load i8, ptr %57, align 4, !tbaa !17
  %.not9.i = icmp eq i8 %58, 0
  br i1 %.not9.i, label %55, label %has_channel_names.exit.loopexit35

.lr.ph.i26:                                       ; preds = %55, %..lr.ph.i26_crit_edge
  %wide.trip.count.i27.pre-phi = phi i64 [ %.pre36, %..lr.ph.i26_crit_edge ], [ %wide.trip.count.i, %55 ]
  %59 = phi ptr [ %.pre, %..lr.ph.i26_crit_edge ], [ %54, %55 ]
  %60 = zext nneg i32 %8 to i64
  br label %61

61:                                               ; preds = %68, %.lr.ph.i26
  %indvars.iv.i28 = phi i64 [ %60, %.lr.ph.i26 ], [ %indvars.iv.next.i29, %68 ]
  %.02030.i = phi i64 [ 0, %.lr.ph.i26 ], [ %69, %68 ]
  %62 = getelementptr inbounds nuw %struct.AVChannelCustom, ptr %59, i64 %indvars.iv.i28
  %63 = load i32, ptr %62, align 8, !tbaa !21
  %or.cond.i = icmp ult i32 %63, 63
  br i1 %or.cond.i, label %64, label %has_channel_names.exit

64:                                               ; preds = %61
  %65 = zext nneg i32 %63 to i64
  %66 = shl nuw nsw i64 1, %65
  %67 = icmp ult i64 %.02030.i, %66
  br i1 %67, label %68, label %has_channel_names.exit

68:                                               ; preds = %64
  %69 = or i64 %66, %.02030.i
  %indvars.iv.next.i29 = add nuw nsw i64 %indvars.iv.i28, 1
  %exitcond.not.i30 = icmp eq i64 %indvars.iv.next.i29, %wide.trip.count.i27.pre-phi
  br i1 %exitcond.not.i30, label %masked_description.exit, label %61, !llvm.loop !41

masked_description.exit:                          ; preds = %68
  store i32 1, ptr %3, align 8, !tbaa !18
  %70 = trunc i64 %69 to i32
  %71 = lshr i32 %70, 1
  %72 = and i32 %71, 1431655765
  %73 = sub i32 %70, %72
  %74 = and i32 %73, 858993459
  %75 = lshr i32 %73, 2
  %76 = and i32 %75, 858993459
  %77 = add nuw nsw i32 %76, %74
  %78 = lshr i32 %77, 4
  %79 = add nuw nsw i32 %78, %77
  %80 = and i32 %79, 252645135
  %81 = lshr i32 %80, 8
  %82 = add nuw nsw i32 %81, %80
  %83 = lshr i32 %82, 16
  %84 = add nuw nsw i32 %83, %82
  %85 = and i32 %84, 63
  %86 = lshr i64 %69, 32
  %87 = trunc nuw nsw i64 %86 to i32
  %88 = lshr i32 %87, 1
  %89 = and i32 %88, 1431655765
  %90 = sub nsw i32 %87, %89
  %91 = and i32 %90, 858993459
  %92 = lshr i32 %90, 2
  %93 = and i32 %92, 858993459
  %94 = add nuw nsw i32 %93, %91
  %95 = lshr i32 %94, 4
  %96 = add nuw nsw i32 %95, %94
  %97 = and i32 %96, 252645135
  %98 = lshr i32 %97, 8
  %99 = add nuw nsw i32 %98, %97
  %100 = lshr i32 %99, 16
  %101 = add nuw nsw i32 %100, %99
  %102 = and i32 %101, 63
  %103 = add nuw nsw i32 %102, %85
  %104 = getelementptr inbounds nuw i8, ptr %3, i64 4
  store i32 %103, ptr %104, align 4, !tbaa !20
  %105 = getelementptr inbounds nuw i8, ptr %3, i64 8
  store i64 %69, ptr %105, align 8, !tbaa !17
  br label %111

has_channel_names.exit.loopexit35:                ; preds = %56
  %.pre37 = zext nneg i32 %8 to i64
  br label %has_channel_names.exit

has_channel_names.exit:                           ; preds = %64, %61, %has_channel_names.exit.loopexit35
  %.pre-phi = phi i64 [ %.pre37, %has_channel_names.exit.loopexit35 ], [ %60, %61 ], [ %60, %64 ]
  %106 = phi ptr [ %54, %has_channel_names.exit.loopexit35 ], [ %59, %61 ], [ %59, %64 ]
  store i32 2, ptr %3, align 8, !tbaa !18
  %107 = sub nsw i32 %10, %8
  %108 = getelementptr inbounds nuw i8, ptr %3, i64 4
  store i32 %107, ptr %108, align 4, !tbaa !20
  %109 = getelementptr inbounds nuw %struct.AVChannelCustom, ptr %106, i64 %.pre-phi
  %110 = getelementptr inbounds nuw i8, ptr %3, i64 8
  store ptr %109, ptr %110, align 8, !tbaa !17
  br label %111

111:                                              ; preds = %masked_description.exit, %has_channel_names.exit, %14
  tail call void @av_bprint_chars(ptr noundef %0, i8 noundef signext 43, i32 noundef 1) #16
  %112 = call i32 @av_channel_layout_describe_bprint(ptr noundef nonnull %3, ptr noundef %0)
  call void @llvm.lifetime.end.p0(i64 24, ptr nonnull %3) #16
  br label %113

113:                                              ; preds = %6, %111, %2
  %.0 = phi i32 [ %4, %2 ], [ 0, %111 ], [ 0, %6 ]
  ret i32 %.0
}